; Function Attrs: mustprogress uwtable
define noundef nonnull align 8 dereferenceable(232) ptr @_ZN6icu_775EditsaSERKS0_(ptr noundef nonnull returned align 8 dereferenceable(232) %0, ptr noundef nonnull readonly align 8 dereferenceable(232) %1) local_unnamed_addr #1 align 2 personality ptr @__gxx_personality_v0 {
  %3 = icmp eq ptr %0, %1
  br i1 %3, label %_ZN6icu_775Edits9copyArrayERKS0_.exit, label %4

4:                                                ; preds = %2
  %5 = getelementptr inbounds nuw i8, ptr %1, i64 12
  %6 = load i32, ptr %5, align 4, !tbaa !21
  %7 = getelementptr inbounds nuw i8, ptr %0, i64 12
  store i32 %6, ptr %7, align 4, !tbaa !21
  %8 = getelementptr inbounds nuw i8, ptr %1, i64 16
  %9 = load i32, ptr %8, align 8, !tbaa !20
  %10 = getelementptr inbounds nuw i8, ptr %0, i64 16
  store i32 %9, ptr %10, align 8, !tbaa !20
  %11 = getelementptr inbounds nuw i8, ptr %1, i64 20
  %12 = load i32, ptr %11, align 4, !tbaa !19
  %13 = getelementptr inbounds nuw i8, ptr %0, i64 20
  store i32 %12, ptr %13, align 4, !tbaa !19
  %14 = getelementptr inbounds nuw i8, ptr %1, i64 24
  %15 = load i32, ptr %14, align 8, !tbaa !18
  %16 = getelementptr inbounds nuw i8, ptr %0, i64 24
  store i32 %15, ptr %16, align 8, !tbaa !18
  %17 = icmp slt i32 %15, 1
  br i1 %17, label %19, label %18

18:                                               ; preds = %4
  store i32 0, ptr %13, align 4, !tbaa !19
  store i32 0, ptr %10, align 8, !tbaa !20
  store i32 0, ptr %7, align 4, !tbaa !21
  br label %_ZN6icu_775Edits9copyArrayERKS0_.exit

19:                                               ; preds = %4
  %20 = getelementptr inbounds nuw i8, ptr %0, i64 8
  %21 = load i32, ptr %20, align 8, !tbaa !22
  %22 = icmp sgt i32 %6, %21
  br i1 %22, label %23, label %37

23:                                               ; preds = %19
  %24 = sext i32 %6 to i64
  %25 = shl nsw i64 %24, 1
  %26 = tail call noalias ptr @uprv_malloc_77(i64 noundef %25) #17
  %27 = icmp eq ptr %26, null
  br i1 %27, label %36, label %28

28:                                               ; preds = %23
  %29 = load ptr, ptr %0, align 8, !tbaa !15
  %30 = getelementptr inbounds nuw i8, ptr %0, i64 28
  %.not.i.i = icmp eq ptr %29, %30
  br i1 %.not.i.i, label %.thread.i, label %31

31:                                               ; preds = %28
  invoke void @uprv_free_77(ptr noundef %29)
          to label %.thread.i unwind label %32

32:                                               ; preds = %31
  %33 = landingpad { ptr, i32 }
          catch ptr null
  %34 = extractvalue { ptr, i32 } %33, 0
  tail call void @__clang_call_terminate(ptr %34) #18
  unreachable

.thread.i:                                        ; preds = %31, %28
  store ptr %26, ptr %0, align 8, !tbaa !15
  %35 = load i32, ptr %7, align 4, !tbaa !21
  store i32 %35, ptr %20, align 8, !tbaa !22
  br label %37

36:                                               ; preds = %23
  store i32 0, ptr %13, align 4, !tbaa !19
  store i32 0, ptr %10, align 8, !tbaa !20
  store i32 0, ptr %7, align 4, !tbaa !21
  store i32 7, ptr %16, align 8, !tbaa !18
  br label %_ZN6icu_775Edits9copyArrayERKS0_.exit

37:                                               ; preds = %.thread.i, %19
  %38 = phi i32 [ %35, %.thread.i ], [ %6, %19 ]
  %39 = icmp sgt i32 %38, 0
  br i1 %39, label %40, label %_ZN6icu_775Edits9copyArrayERKS0_.exit

40:                                               ; preds = %37
  %41 = load ptr, ptr %0, align 8, !tbaa !15
  %42 = load ptr, ptr %1, align 8, !tbaa !15
  %43 = shl nuw i32 %38, 1
  %44 = zext i32 %43 to i64
  tail call void @llvm.memcpy.p0.p0.i64(ptr align 2 %41, ptr align 2 %42, i64 %44, i1 false)
  br label %_ZN6icu_775Edits9copyArrayERKS0_.exit

_ZN6icu_775Edits9copyArrayERKS0_.exit:            ; preds = %40, %37, %36, %18, %2
  ret ptr %0
}